target datalayout = "e-m:e-p270:32:32-p271:32:32-p272:64:64-i64:64-i128:128-f80:128-n8:16:32:64-S128"
target triple = "x86_64-pc-linux-gnu"

@onig_inited = internal global i32 0, align 4

; Function Attrs: nounwind uwtable
define dso_local i32 @onig_initialize(ptr noundef %0, i32 noundef %1) #0 {
  %3 = alloca i32, align 4
  %4 = alloca ptr, align 8
  %5 = alloca i32, align 4
  %6 = alloca i32, align 4
  %7 = alloca i32, align 4
  %8 = alloca i32, align 4
  %9 = alloca ptr, align 8
  store ptr %0, ptr %4, align 8, !tbaa !119
  store i32 %1, ptr %5, align 4, !tbaa !4
  call void @llvm.lifetime.start.p0(i64 4, ptr %6) #9
  call void @llvm.lifetime.start.p0(i64 4, ptr %7) #9
  %10 = load i32, ptr @onig_inited, align 4, !tbaa !4
  %11 = icmp ne i32 %10, 0
  br i1 %11, label %12, label %13

12:                                               ; preds = %2
  store i32 0, ptr %3, align 4
  store i32 1, ptr %8, align 4
  br label %39

13:                                               ; preds = %2
  %14 = call i32 @onigenc_init()
  store i32 1, ptr @onig_inited, align 4, !tbaa !4
  store i32 0, ptr %6, align 4, !tbaa !4
  br label %15

15:                                               ; preds = %35, %13
  %16 = load i32, ptr %6, align 4, !tbaa !4
  %17 = load i32, ptr %5, align 4, !tbaa !4
  %18 = icmp slt i32 %16, %17
  br i1 %18, label %19, label %38

19:                                               ; preds = %15
  call void @llvm.lifetime.start.p0(i64 8, ptr %9) #9
  %20 = load ptr, ptr %4, align 8, !tbaa !119
  %21 = load i32, ptr %6, align 4, !tbaa !4
  %22 = sext i32 %21 to i64
  %23 = getelementptr inbounds ptr, ptr %20, i64 %22
  %24 = load ptr, ptr %23, align 8, !tbaa !115
  store ptr %24, ptr %9, align 8, !tbaa !115
  %25 = load ptr, ptr %9, align 8, !tbaa !115
  %26 = call i32 @onig_initialize_encoding(ptr noundef %25)
  store i32 %26, ptr %7, align 4, !tbaa !4
  %27 = load i32, ptr %7, align 4, !tbaa !4
  %28 = icmp ne i32 %27, 0
  br i1 %28, label %29, label %31

29:                                               ; preds = %19
  %30 = load i32, ptr %7, align 4, !tbaa !4
  store i32 %30, ptr %3, align 4
  store i32 1, ptr %8, align 4
  br label %32

31:                                               ; preds = %19
  store i32 0, ptr %8, align 4
  br label %32

32:                                               ; preds = %31, %29
  call void @llvm.lifetime.end.p0(i64 8, ptr %9) #9
  %33 = load i32, ptr %8, align 4
  switch i32 %33, label %39 [
    i32 0, label %34
  ]

34:                                               ; preds = %32
  br label %35

35:                                               ; preds = %34
  %36 = load i32, ptr %6, align 4, !tbaa !4
  %37 = add nsw i32 %36, 1
  store i32 %37, ptr %6, align 4, !tbaa !4
  br label %15, !llvm.loop !121

38:                                               ; preds = %15
  store i32 0, ptr %3, align 4
  store i32 1, ptr %8, align 4
  br label %39

39:                                               ; preds = %38, %32, %12
  call void @llvm.lifetime.end.p0(i64 4, ptr %7) #9
  call void @llvm.lifetime.end.p0(i64 4, ptr %6) #9
  %40 = load i32, ptr %3, align 4
  ret i32 %40
}